; ModuleID = '50/1989.c'
source_filename = "50/1989.c"
target datalayout = "e-m:e-p270:32:32-p271:32:32-p272:64:64-i64:64-f80:128-n8:16:32:64-S128"
target triple = "x86_64-pc-linux-gnu"

@__const.main.a = private unnamed_addr constant [13 x i32] [i32 0, i32 0, i32 31, i32 28, i32 31, i32 30, i32 31, i32 30, i32 31, i32 31, i32 30, i32 31, i32 30], align 16
@.str = private unnamed_addr constant [3 x i8] c"%d\00", align 1
@.str.1 = private unnamed_addr constant [4 x i8] c"%d\0A\00", align 1

; Function Attrs: noinline nounwind uwtable
define dso_local i32 @main() #0 {
  %1 = alloca i32, align 4
  %2 = alloca i32, align 4
  %3 = alloca i32, align 4
  %4 = alloca i32, align 4
  %5 = alloca i32, align 4
  %6 = alloca [13 x i32], align 16
  store i32 0, i32* %1, align 4
  %7 = bitcast [13 x i32]* %6 to i8*
  call void @llvm.memcpy.p0i8.p0i8.i64(i8* align 16 %7, i8* align 16 bitcast ([13 x i32]* @__const.main.a to i8*), i64 52, i1 false)
  %8 = call i32 (i8*, ...) @__isoc99_scanf(i8* getelementptr inbounds ([3 x i8], [3 x i8]* @.str, i64 0, i64 0), i32* %2)
  store i32 1, i32* %5, align 4
  store i32 12, i32* %3, align 4
  br label %9

9:                                                ; preds = %37, %0
  %10 = load i32, i32* %5, align 4
  %11 = icmp sle i32 %10, 12
  br i1 %11, label %12, label %40

12:                                               ; preds = %9
  %13 = load i32, i32* %3, align 4
  %14 = load i32, i32* %5, align 4
  %15 = sext i32 %14 to i64
  %16 = getelementptr inbounds [13 x i32], [13 x i32]* %6, i64 0, i64 %15
  %17 = load i32, i32* %16, align 4
  %18 = add nsw i32 %13, %17
  store i32 %18, i32* %3, align 4
  %19 = load i32, i32* %3, align 4
  %20 = srem i32 %19, 7
  store i32 %20, i32* %3, align 4
  %21 = load i32, i32* %3, align 4
  %22 = load i32, i32* %2, align 4
  %23 = add nsw i32 %21, %22
  %24 = icmp eq i32 %23, 7
  br i1 %24, label %25, label %26

25:                                               ; preds = %12
  store i32 7, i32* %4, align 4
  br label %31

26:                                               ; preds = %12
  %27 = load i32, i32* %3, align 4
  %28 = load i32, i32* %2, align 4
  %29 = add nsw i32 %27, %28
  %30 = srem i32 %29, 7
  store i32 %30, i32* %4, align 4
  br label %31

31:                                               ; preds = %26, %25
  %32 = load i32, i32* %4, align 4
  %33 = icmp eq i32 %32, 5
  br i1 %33, label %34, label %37

34:                                               ; preds = %31
  %35 = load i32, i32* %5, align 4
  %36 = call i32 (i8*, ...) @printf(i8* getelementptr inbounds ([4 x i8], [4 x i8]* @.str.1, i64 0, i64 0), i32 %35)
  br label %37

37:                                               ; preds = %34, %31
  %38 = load i32, i32* %5, align 4
  %39 = add nsw i32 %38, 1
  store i32 %39, i32* %5, align 4
  br label %9

40:                                               ; preds = %9
  ret i32 0
}

; Function Attrs: argmemonly nounwind willreturn
declare void @llvm.memcpy.p0i8.p0i8.i64(i8* noalias nocapture writeonly, i8* noalias nocapture readonly, i64, i1 immarg) #1

declare dso_local i32 @__isoc99_scanf(i8*, ...) #2

declare dso_local i32 @printf(i8*, ...) #2


!llvm.module.flags = !{!0}
!llvm.ident = !{!1}

!0 = !{i32 1, !"wchar_size", i32 4}
!1 = !{!"clang version 10.0.0-4ubuntu1 "}
